target datalayout = "e-m:e-p270:32:32-p271:32:32-p272:64:64-i64:64-i128:128-f80:128-n8:16:32:64-S128"
target triple = "x86_64-pc-linux-gnu"

%struct.nstime_t = type { i64, i32 }
%struct._address = type { i32, i32, ptr, ptr }
%struct.cip_safety_epath_info = type { i8, i32, i32, i32, i16, i16, i8, %struct.cip_connection_triad, float }
%struct.cip_connection_triad = type { i16, i16, i32 }
%struct.cip_safety_info = type { i32, ptr, i8 }
%struct.cip_conn_info = type { %struct.cip_connection_triad, i8, i32, %struct.cip_safety_epath_info, i32, ptr, %struct.cip_simple_request_info, i32, i32, i32, %struct.cip_connID_info, %struct.cip_connID_info, i32, i8, i8 }
%struct.cip_simple_request_info = type { i32, i32, i32, i32, i32, i32, i32, i32, i8 }
%struct.cip_connID_info = type { i32, %struct._address, i16, i32, i32, i32, i32, i32, %struct.nstime_t }

; Function Attrs: alwaysinline nounwind
define internal ptr @memset.inline(ptr %0, i32 %1, i64 %2) #8 {
  %4 = alloca ptr, align 8
  %5 = alloca i32, align 4
  %6 = alloca i64, align 8
  store ptr %0, ptr %4, align 8
  store i32 %1, ptr %5, align 4
  store i64 %2, ptr %6, align 8
  %7 = load ptr, ptr %4, align 8
  %8 = load i32, ptr %5, align 4
  %9 = load i64, ptr %6, align 8
  %10 = load ptr, ptr %4, align 8
  %11 = call i64 @llvm.objectsize.i64.p0(ptr %10, i1 false, i1 true, i1 true)
  %12 = call ptr @__memset_chk(ptr noundef %7, i32 noundef %8, i64 noundef %9, i64 noundef %11) #11
  ret ptr %12
}

; Function Attrs: null_pointer_is_valid sspstrong uwtable
define internal i32 @dissect_cipsafety_base_time_coord(ptr noundef %0, ptr noundef %1, ptr noundef %2, ptr noundef %3) #0 {
  %5 = alloca ptr, align 8
  %6 = alloca ptr, align 8
  %7 = alloca ptr, align 8
  %8 = alloca ptr, align 8
  %9 = alloca %struct.cip_safety_info, align 8
  %10 = alloca %struct.cip_conn_info, align 8
  store ptr %0, ptr %5, align 8
  store ptr %1, ptr %6, align 8
  store ptr %2, ptr %7, align 8
  store ptr %3, ptr %8, align 8
  call void @llvm.lifetime.start.p0(i64 24, ptr %9) #11
  call void @llvm.lifetime.start.p0(i64 264, ptr %10) #11
  %11 = call ptr @memset.inline(ptr noundef %10, i32 noundef 0, i64 noundef 264) #11
  %12 = getelementptr inbounds nuw %struct.cip_safety_info, ptr %9, i32 0, i32 1
  store ptr %10, ptr %12, align 8
  %13 = getelementptr inbounds nuw %struct.cip_safety_info, ptr %9, i32 0, i32 2
  store i8 0, ptr %13, align 8
  %14 = getelementptr inbounds nuw %struct.cip_safety_info, ptr %9, i32 0, i32 0
  store i32 1, ptr %14, align 8
  %15 = getelementptr inbounds nuw %struct.cip_safety_info, ptr %9, i32 0, i32 1
  %16 = load ptr, ptr %15, align 8
  %17 = getelementptr inbounds nuw %struct.cip_conn_info, ptr %16, i32 0, i32 1
  store i8 0, ptr %17, align 8
  %18 = getelementptr inbounds nuw %struct.cip_safety_info, ptr %9, i32 0, i32 1
  %19 = load ptr, ptr %18, align 8
  %20 = getelementptr inbounds nuw %struct.cip_conn_info, ptr %19, i32 0, i32 3
  %21 = getelementptr inbounds nuw %struct.cip_safety_epath_info, ptr %20, i32 0, i32 1
  store i32 0, ptr %21, align 4
  %22 = load ptr, ptr %5, align 8
  %23 = load ptr, ptr %6, align 8
  %24 = load ptr, ptr %7, align 8
  %25 = call i32 @dissect_cipsafety(ptr noundef %22, ptr noundef %23, ptr noundef %24, ptr noundef %9)
  call void @llvm.lifetime.end.p0(i64 264, ptr %10) #11
  call void @llvm.lifetime.end.p0(i64 24, ptr %9) #11
  ret i32 %25
}